; ModuleID = 'source-C-CXX/36/886.cpp'
source_filename = "source-C-CXX/36/886.cpp"
target datalayout = "e-m:e-p270:32:32-p271:32:32-p272:64:64-i64:64-f80:128-n8:16:32:64-S128"
target triple = "x86_64-pc-linux-gnu"

%"class.std::ios_base::Init" = type { i8 }
%"class.std::basic_istream" = type { i32 (...)**, i64, %"class.std::basic_ios" }
%"class.std::basic_ios" = type { %"class.std::ios_base", %"class.std::basic_ostream"*, i8, i8, %"class.std::basic_streambuf"*, %"class.std::ctype"*, %"class.std::num_put"*, %"class.std::num_get"* }
%"class.std::ios_base" = type { i32 (...)**, i64, i64, i32, i32, i32, %"struct.std::ios_base::_Callback_list"*, %"struct.std::ios_base::_Words", [8 x %"struct.std::ios_base::_Words"], i32, %"struct.std::ios_base::_Words"*, %"class.std::locale" }
%"struct.std::ios_base::_Callback_list" = type { %"struct.std::ios_base::_Callback_list"*, void (i32, %"class.std::ios_base"*, i32)*, i32, i32 }
%"struct.std::ios_base::_Words" = type { i8*, i64 }
%"class.std::locale" = type { %"class.std::locale::_Impl"* }
%"class.std::locale::_Impl" = type { i32, %"class.std::locale::facet"**, i64, %"class.std::locale::facet"**, i8** }
%"class.std::locale::facet" = type <{ i32 (...)**, i32, [4 x i8] }>
%"class.std::basic_ostream" = type { i32 (...)**, %"class.std::basic_ios" }
%"class.std::basic_streambuf" = type { i32 (...)**, i8*, i8*, i8*, i8*, i8*, i8*, %"class.std::locale" }
%"class.std::ctype" = type <{ %"class.std::locale::facet.base", [4 x i8], %struct.__locale_struct*, i8, [7 x i8], i32*, i32*, i16*, i8, [256 x i8], [256 x i8], i8, [6 x i8] }>
%"class.std::locale::facet.base" = type <{ i32 (...)**, i32 }>
%struct.__locale_struct = type { [13 x %struct.__locale_data*], i16*, i32*, i32*, [13 x i8*] }
%struct.__locale_data = type opaque
%"class.std::num_put" = type { %"class.std::locale::facet.base", [4 x i8] }
%"class.std::num_get" = type { %"class.std::locale::facet.base", [4 x i8] }

@_ZStL8__ioinit = internal global %"class.std::ios_base::Init" zeroinitializer, align 1
@__dso_handle = external hidden global i8
@_ZSt3cin = external global %"class.std::basic_istream", align 8
@_ZSt4cout = external global %"class.std::basic_ostream", align 8
@.str = private unnamed_addr constant [3 x i8] c"no\00", align 1
@llvm.global_ctors = appending global [1 x { i32, void ()*, i8* }] [{ i32, void ()*, i8* } { i32 65535, void ()* @_GLOBAL__sub_I_886.cpp, i8* null }]

declare void @_ZNSt8ios_base4InitC1Ev(%"class.std::ios_base::Init"* nonnull align 1 dereferenceable(1)) unnamed_addr #0

; Function Attrs: nounwind
declare void @_ZNSt8ios_base4InitD1Ev(%"class.std::ios_base::Init"* nonnull align 1 dereferenceable(1)) unnamed_addr #1

; Function Attrs: nofree nounwind
declare i32 @__cxa_atexit(void (i8*)*, i8*, i8*) local_unnamed_addr #2

; Function Attrs: mustprogress norecurse sspstrong uwtable
define dso_local i32 @main() local_unnamed_addr #3 {
  %1 = alloca i8, align 1
  %2 = alloca [10000 x i8], align 16
  %3 = alloca i32, align 4
  %4 = alloca [26 x i32], align 16
  %5 = getelementptr inbounds [10000 x i8], [10000 x i8]* %2, i64 0, i64 0
  call void @llvm.lifetime.start.p0i8(i64 10000, i8* nonnull %5) #9
  %6 = bitcast i32* %3 to i8*
  call void @llvm.lifetime.start.p0i8(i64 4, i8* nonnull %6) #9
  %7 = call nonnull align 8 dereferenceable(16) %"class.std::basic_istream"* @_ZNSirsERi(%"class.std::basic_istream"* nonnull align 8 dereferenceable(16) @_ZSt3cin, i32* nonnull align 4 dereferenceable(4) %3)
  %8 = bitcast [26 x i32]* %4 to i8*
  %9 = load i32, i32* %3, align 4, !tbaa !5
  %10 = icmp sgt i32 %9, 0
  br i1 %10, label %11, label %154

11:                                               ; preds = %0, %149
  %12 = phi i32 [ %151, %149 ], [ 0, %0 ]
  %13 = phi i32 [ %150, %149 ], [ undef, %0 ]
  call void @llvm.memset.p0i8.i64(i8* noundef nonnull align 16 dereferenceable(10000) %5, i8 0, i64 10000, i1 false)
  call void @llvm.lifetime.start.p0i8(i64 104, i8* nonnull %8) #9
  call void @llvm.memset.p0i8.i64(i8* noundef nonnull align 16 dereferenceable(104) %8, i8 0, i64 104, i1 false)
  call void @_ZSt17__istream_extractRSiPcl(%"class.std::basic_istream"* nonnull align 8 dereferenceable(16) @_ZSt3cin, i8* nonnull %5, i64 10000)
  %14 = call i64 @strlen(i8* noundef nonnull %5) #10
  %15 = trunc i64 %14 to i32
  %16 = icmp sgt i32 %15, 0
  br i1 %16, label %17, label %114

17:                                               ; preds = %11
  %18 = and i64 %14, 4294967295
  %19 = add nsw i64 %18, -1
  %20 = and i64 %14, 1
  %21 = icmp eq i64 %19, 0
  br i1 %21, label %24, label %22

22:                                               ; preds = %17
  %23 = sub nsw i64 %18, %20
  br label %41

24:                                               ; preds = %41, %17
  %25 = phi i64 [ 0, %17 ], [ %59, %41 ]
  %26 = icmp eq i64 %20, 0
  br i1 %26, label %35, label %27

27:                                               ; preds = %24
  %28 = getelementptr inbounds [10000 x i8], [10000 x i8]* %2, i64 0, i64 %25
  %29 = load i8, i8* %28, align 1, !tbaa !9
  %30 = sext i8 %29 to i64
  %31 = add nsw i64 %30, -97
  %32 = getelementptr inbounds [26 x i32], [26 x i32]* %4, i64 0, i64 %31
  %33 = load i32, i32* %32, align 4, !tbaa !5
  %34 = add nsw i32 %33, 1
  store i32 %34, i32* %32, align 4, !tbaa !5
  br label %35

35:                                               ; preds = %24, %27
  br i1 %16, label %36, label %114

36:                                               ; preds = %35
  %37 = and i64 %14, 1
  %38 = icmp eq i64 %19, 0
  br i1 %38, label %91, label %39

39:                                               ; preds = %36
  %40 = sub nsw i64 %18, %37
  br label %62

41:                                               ; preds = %41, %22
  %42 = phi i64 [ 0, %22 ], [ %59, %41 ]
  %43 = phi i64 [ %23, %22 ], [ %60, %41 ]
  %44 = getelementptr inbounds [10000 x i8], [10000 x i8]* %2, i64 0, i64 %42
  %45 = load i8, i8* %44, align 2, !tbaa !9
  %46 = sext i8 %45 to i64
  %47 = add nsw i64 %46, -97
  %48 = getelementptr inbounds [26 x i32], [26 x i32]* %4, i64 0, i64 %47
  %49 = load i32, i32* %48, align 4, !tbaa !5
  %50 = add nsw i32 %49, 1
  store i32 %50, i32* %48, align 4, !tbaa !5
  %51 = or i64 %42, 1
  %52 = getelementptr inbounds [10000 x i8], [10000 x i8]* %2, i64 0, i64 %51
  %53 = load i8, i8* %52, align 1, !tbaa !9
  %54 = sext i8 %53 to i64
  %55 = add nsw i64 %54, -97
  %56 = getelementptr inbounds [26 x i32], [26 x i32]* %4, i64 0, i64 %55
  %57 = load i32, i32* %56, align 4, !tbaa !5
  %58 = add nsw i32 %57, 1
  store i32 %58, i32* %56, align 4, !tbaa !5
  %59 = add nuw nsw i64 %42, 2
  %60 = add i64 %43, -2
  %61 = icmp eq i64 %60, 0
  br i1 %61, label %24, label %41, !llvm.loop !10

62:                                               ; preds = %62, %39
  %63 = phi i32 [ %15, %39 ], [ %77, %62 ]
  %64 = phi i32 [ 0, %39 ], [ %88, %62 ]
  %65 = phi i32 [ %13, %39 ], [ %86, %62 ]
  %66 = phi i64 [ %40, %39 ], [ %89, %62 ]
  %67 = add nsw i32 %63, -1
  %68 = zext i32 %67 to i64
  %69 = getelementptr inbounds [10000 x i8], [10000 x i8]* %2, i64 0, i64 %68
  %70 = load i8, i8* %69, align 1, !tbaa !9
  %71 = sext i8 %70 to i64
  %72 = add nsw i64 %71, -97
  %73 = getelementptr inbounds [26 x i32], [26 x i32]* %4, i64 0, i64 %72
  %74 = load i32, i32* %73, align 4, !tbaa !5
  %75 = icmp eq i32 %74, 1
  %76 = select i1 %75, i32 %67, i32 %65
  %77 = add nsw i32 %63, -2
  %78 = zext i32 %77 to i64
  %79 = getelementptr inbounds [10000 x i8], [10000 x i8]* %2, i64 0, i64 %78
  %80 = load i8, i8* %79, align 1, !tbaa !9
  %81 = sext i8 %80 to i64
  %82 = add nsw i64 %81, -97
  %83 = getelementptr inbounds [26 x i32], [26 x i32]* %4, i64 0, i64 %82
  %84 = load i32, i32* %83, align 4, !tbaa !5
  %85 = icmp eq i32 %84, 1
  %86 = select i1 %85, i32 %77, i32 %76
  %87 = select i1 %85, i1 true, i1 %75
  %88 = select i1 %87, i32 1, i32 %64
  %89 = add i64 %66, -2
  %90 = icmp eq i64 %89, 0
  br i1 %90, label %91, label %62, !llvm.loop !12

91:                                               ; preds = %62, %36
  %92 = phi i32 [ undef, %36 ], [ %86, %62 ]
  %93 = phi i32 [ undef, %36 ], [ %88, %62 ]
  %94 = phi i32 [ %15, %36 ], [ %77, %62 ]
  %95 = phi i32 [ 0, %36 ], [ %88, %62 ]
  %96 = phi i32 [ %13, %36 ], [ %86, %62 ]
  %97 = icmp eq i64 %37, 0
  br i1 %97, label %110, label %98

98:                                               ; preds = %91
  %99 = add nsw i32 %94, -1
  %100 = zext i32 %99 to i64
  %101 = getelementptr inbounds [10000 x i8], [10000 x i8]* %2, i64 0, i64 %100
  %102 = load i8, i8* %101, align 1, !tbaa !9
  %103 = sext i8 %102 to i64
  %104 = add nsw i64 %103, -97
  %105 = getelementptr inbounds [26 x i32], [26 x i32]* %4, i64 0, i64 %104
  %106 = load i32, i32* %105, align 4, !tbaa !5
  %107 = icmp eq i32 %106, 1
  %108 = select i1 %107, i32 1, i32 %95
  %109 = select i1 %107, i32 %99, i32 %96
  br label %110

110:                                              ; preds = %91, %98
  %111 = phi i32 [ %92, %91 ], [ %109, %98 ]
  %112 = phi i32 [ %93, %91 ], [ %108, %98 ]
  %113 = icmp eq i32 %112, 0
  br i1 %113, label %114, label %117

114:                                              ; preds = %11, %35, %110
  %115 = phi i32 [ %111, %110 ], [ %13, %35 ], [ %13, %11 ]
  %116 = call nonnull align 8 dereferenceable(8) %"class.std::basic_ostream"* @_ZSt16__ostream_insertIcSt11char_traitsIcEERSt13basic_ostreamIT_T0_ES6_PKS3_l(%"class.std::basic_ostream"* nonnull align 8 dereferenceable(8) @_ZSt4cout, i8* nonnull getelementptr inbounds ([3 x i8], [3 x i8]* @.str, i64 0, i64 0), i64 2)
  br label %149

117:                                              ; preds = %110
  %118 = sext i32 %111 to i64
  %119 = getelementptr inbounds [10000 x i8], [10000 x i8]* %2, i64 0, i64 %118
  %120 = load i8, i8* %119, align 1, !tbaa !9
  call void @llvm.lifetime.start.p0i8(i64 1, i8* nonnull %1)
  store i8 %120, i8* %1, align 1, !tbaa !9
  %121 = call nonnull align 8 dereferenceable(8) %"class.std::basic_ostream"* @_ZSt16__ostream_insertIcSt11char_traitsIcEERSt13basic_ostreamIT_T0_ES6_PKS3_l(%"class.std::basic_ostream"* nonnull align 8 dereferenceable(8) @_ZSt4cout, i8* nonnull %1, i64 1)
  call void @llvm.lifetime.end.p0i8(i64 1, i8* nonnull %1)
  %122 = load i8*, i8** bitcast (%"class.std::basic_ostream"* @_ZSt4cout to i8**), align 8, !tbaa !13
  %123 = getelementptr i8, i8* %122, i64 -24
  %124 = bitcast i8* %123 to i64*
  %125 = load i64, i64* %124, align 8
  %126 = add nsw i64 %125, 240
  %127 = getelementptr inbounds i8, i8* bitcast (%"class.std::basic_ostream"* @_ZSt4cout to i8*), i64 %126
  %128 = bitcast i8* %127 to %"class.std::ctype"**
  %129 = load %"class.std::ctype"*, %"class.std::ctype"** %128, align 8, !tbaa !15
  %130 = icmp eq %"class.std::ctype"* %129, null
  br i1 %130, label %131, label %132

131:                                              ; preds = %117
  call void @_ZSt16__throw_bad_castv() #11
  unreachable

132:                                              ; preds = %117
  %133 = getelementptr inbounds %"class.std::ctype", %"class.std::ctype"* %129, i64 0, i32 8
  %134 = load i8, i8* %133, align 8, !tbaa !19
  %135 = icmp eq i8 %134, 0
  br i1 %135, label %139, label %136

136:                                              ; preds = %132
  %137 = getelementptr inbounds %"class.std::ctype", %"class.std::ctype"* %129, i64 0, i32 9, i64 10
  %138 = load i8, i8* %137, align 1, !tbaa !9
  br label %145

139:                                              ; preds = %132
  call void @_ZNKSt5ctypeIcE13_M_widen_initEv(%"class.std::ctype"* nonnull align 8 dereferenceable(570) %129)
  %140 = bitcast %"class.std::ctype"* %129 to i8 (%"class.std::ctype"*, i8)***
  %141 = load i8 (%"class.std::ctype"*, i8)**, i8 (%"class.std::ctype"*, i8)*** %140, align 8, !tbaa !13
  %142 = getelementptr inbounds i8 (%"class.std::ctype"*, i8)*, i8 (%"class.std::ctype"*, i8)** %141, i64 6
  %143 = load i8 (%"class.std::ctype"*, i8)*, i8 (%"class.std::ctype"*, i8)** %142, align 8
  %144 = call signext i8 %143(%"class.std::ctype"* nonnull align 8 dereferenceable(570) %129, i8 signext 10)
  br label %145

145:                                              ; preds = %136, %139
  %146 = phi i8 [ %138, %136 ], [ %144, %139 ]
  %147 = call nonnull align 8 dereferenceable(8) %"class.std::basic_ostream"* @_ZNSo3putEc(%"class.std::basic_ostream"* nonnull align 8 dereferenceable(8) @_ZSt4cout, i8 signext %146)
  %148 = call nonnull align 8 dereferenceable(8) %"class.std::basic_ostream"* @_ZNSo5flushEv(%"class.std::basic_ostream"* nonnull align 8 dereferenceable(8) %147)
  br label %149

149:                                              ; preds = %145, %114
  %150 = phi i32 [ %111, %145 ], [ %115, %114 ]
  call void @llvm.lifetime.end.p0i8(i64 104, i8* nonnull %8) #9
  %151 = add nuw nsw i32 %12, 1
  %152 = load i32, i32* %3, align 4, !tbaa !5
  %153 = icmp slt i32 %151, %152
  br i1 %153, label %11, label %154, !llvm.loop !21

154:                                              ; preds = %149, %0
  call void @llvm.lifetime.end.p0i8(i64 4, i8* nonnull %6) #9
  call void @llvm.lifetime.end.p0i8(i64 10000, i8* nonnull %5) #9
  ret i32 0
}

; Function Attrs: argmemonly mustprogress nofree nosync nounwind willreturn
declare void @llvm.lifetime.start.p0i8(i64 immarg, i8* nocapture) #4

declare nonnull align 8 dereferenceable(16) %"class.std::basic_istream"* @_ZNSirsERi(%"class.std::basic_istream"* nonnull align 8 dereferenceable(16), i32* nonnull align 4 dereferenceable(4)) local_unnamed_addr #0

; Function Attrs: argmemonly mustprogress nofree nounwind willreturn writeonly
declare void @llvm.memset.p0i8.i64(i8* nocapture writeonly, i8, i64, i1 immarg) #5

; Function Attrs: argmemonly mustprogress nofree nounwind readonly willreturn
declare i64 @strlen(i8* nocapture) local_unnamed_addr #6

; Function Attrs: argmemonly mustprogress nofree nosync nounwind willreturn
declare void @llvm.lifetime.end.p0i8(i64 immarg, i8* nocapture) #4

declare void @_ZSt17__istream_extractRSiPcl(%"class.std::basic_istream"* nonnull align 8 dereferenceable(16), i8*, i64) local_unnamed_addr #0

declare nonnull align 8 dereferenceable(8) %"class.std::basic_ostream"* @_ZSt16__ostream_insertIcSt11char_traitsIcEERSt13basic_ostreamIT_T0_ES6_PKS3_l(%"class.std::basic_ostream"* nonnull align 8 dereferenceable(8), i8*, i64) local_unnamed_addr #0

declare nonnull align 8 dereferenceable(8) %"class.std::basic_ostream"* @_ZNSo3putEc(%"class.std::basic_ostream"* nonnull align 8 dereferenceable(8), i8 signext) local_unnamed_addr #0

declare nonnull align 8 dereferenceable(8) %"class.std::basic_ostream"* @_ZNSo5flushEv(%"class.std::basic_ostream"* nonnull align 8 dereferenceable(8)) local_unnamed_addr #0

; Function Attrs: noreturn
declare void @_ZSt16__throw_bad_castv() local_unnamed_addr #7

declare void @_ZNKSt5ctypeIcE13_M_widen_initEv(%"class.std::ctype"* nonnull align 8 dereferenceable(570)) local_unnamed_addr #0

; Function Attrs: sspstrong uwtable
define internal void @_GLOBAL__sub_I_886.cpp() #8 section ".text.startup" {
  tail call void @_ZNSt8ios_base4InitC1Ev(%"class.std::ios_base::Init"* nonnull align 1 dereferenceable(1) @_ZStL8__ioinit)
  %1 = tail call i32 @__cxa_atexit(void (i8*)* bitcast (void (%"class.std::ios_base::Init"*)* @_ZNSt8ios_base4InitD1Ev to void (i8*)*), i8* getelementptr inbounds (%"class.std::ios_base::Init", %"class.std::ios_base::Init"* @_ZStL8__ioinit, i64 0, i32 0), i8* nonnull @__dso_handle) #9
  ret void
}


!llvm.module.flags = !{!0, !1, !2, !3}
!llvm.ident = !{!4}

!0 = !{i32 1, !"wchar_size", i32 4}
!1 = !{i32 7, !"PIC Level", i32 2}
!2 = !{i32 7, !"PIE Level", i32 2}
!3 = !{i32 7, !"uwtable", i32 1}
!4 = !{!"clang version 13.0.0"}
!5 = !{!6, !6, i64 0}
!6 = !{!"int", !7, i64 0}
!7 = !{!"omnipotent char", !8, i64 0}
!8 = !{!"Simple C++ TBAA"}
!9 = !{!7, !7, i64 0}
!10 = distinct !{!10, !11}
!11 = !{!"llvm.loop.mustprogress"}
!12 = distinct !{!12, !11}
!13 = !{!14, !14, i64 0}
!14 = !{!"vtable pointer", !8, i64 0}
!15 = !{!16, !17, i64 240}
!16 = !{!"_ZTSSt9basic_iosIcSt11char_traitsIcEE", !17, i64 216, !7, i64 224, !18, i64 225, !17, i64 232, !17, i64 240, !17, i64 248, !17, i64 256}
!17 = !{!"any pointer", !7, i64 0}
!18 = !{!"bool", !7, i64 0}
!19 = !{!20, !7, i64 56}
!20 = !{!"_ZTSSt5ctypeIcE", !17, i64 16, !18, i64 24, !17, i64 32, !17, i64 40, !17, i64 48, !7, i64 56, !7, i64 57, !7, i64 313, !7, i64 569}
!21 = distinct !{!21, !11}
